target datalayout = "e-m:e-p270:32:32-p271:32:32-p272:64:64-i64:64-i128:128-f80:128-n8:16:32:64-S128"
target triple = "x86_64-pc-linux-gnu"

@TextSubtext.buffer = internal global [1024 x i8] zeroinitializer, align 16

; Function Attrs: nounwind uwtable
define i32 @TextLength(ptr noundef %0) #0 {
  %2 = alloca ptr, align 8
  %3 = alloca i32, align 4
  store ptr %0, ptr %2, align 8
  call void @llvm.lifetime.start.p0(i64 4, ptr %3) #13
  store i32 0, ptr %3, align 4
  %4 = load ptr, ptr %2, align 8
  %5 = icmp ne ptr %4, null
  br i1 %5, label %6, label %16

6:                                                ; preds = %1
  br label %7

7:                                                ; preds = %12, %6
  %8 = load ptr, ptr %2, align 8
  %9 = getelementptr inbounds nuw i8, ptr %8, i32 1
  store ptr %9, ptr %2, align 8
  %10 = load i8, ptr %8, align 1
  %11 = icmp ne i8 %10, 0
  br i1 %11, label %12, label %15

12:                                               ; preds = %7
  %13 = load i32, ptr %3, align 4
  %14 = add i32 %13, 1
  store i32 %14, ptr %3, align 4
  br label %7

15:                                               ; preds = %7
  br label %16

16:                                               ; preds = %15, %1
  %17 = load i32, ptr %3, align 4
  call void @llvm.lifetime.end.p0(i64 4, ptr %3) #13
  ret i32 %17
}

; Function Attrs: nounwind uwtable
define ptr @TextSubtext(ptr noundef %0, i32 noundef %1, i32 noundef %2) #0 {
  %4 = alloca ptr, align 8
  %5 = alloca ptr, align 8
  %6 = alloca i32, align 4
  %7 = alloca i32, align 4
  %8 = alloca i32, align 4
  %9 = alloca i32, align 4
  %10 = alloca i32, align 4
  %11 = alloca i32, align 4
  store ptr %0, ptr %5, align 8
  store i32 %1, ptr %6, align 4
  store i32 %2, ptr %7, align 4
  call void @llvm.memset.p0.i64(ptr align 16 @TextSubtext.buffer, i8 0, i64 1024, i1 false)
  call void @llvm.lifetime.start.p0(i64 4, ptr %8) #13
  %12 = load ptr, ptr %5, align 8
  %13 = call i32 @TextLength(ptr noundef %12)
  store i32 %13, ptr %8, align 4
  %14 = load i32, ptr %6, align 4
  %15 = load i32, ptr %8, align 4
  %16 = icmp sge i32 %14, %15
  br i1 %16, label %17, label %18

17:                                               ; preds = %3
  store ptr @TextSubtext.buffer, ptr %4, align 8
  store i32 1, ptr %9, align 4
  br label %55

18:                                               ; preds = %3
  call void @llvm.lifetime.start.p0(i64 4, ptr %10) #13
  %19 = load i32, ptr %8, align 4
  %20 = load i32, ptr %6, align 4
  %21 = sub nsw i32 %19, %20
  store i32 %21, ptr %10, align 4
  %22 = load i32, ptr %7, align 4
  %23 = load i32, ptr %10, align 4
  %24 = icmp sgt i32 %22, %23
  br i1 %24, label %25, label %27

25:                                               ; preds = %18
  %26 = load i32, ptr %10, align 4
  store i32 %26, ptr %7, align 4
  br label %27

27:                                               ; preds = %25, %18
  %28 = load i32, ptr %7, align 4
  %29 = icmp sge i32 %28, 1024
  br i1 %29, label %30, label %31

30:                                               ; preds = %27
  store i32 1023, ptr %7, align 4
  br label %31

31:                                               ; preds = %30, %27
  call void @llvm.lifetime.start.p0(i64 4, ptr %11) #13
  store i32 0, ptr %11, align 4
  br label %32

32:                                               ; preds = %48, %31
  %33 = load i32, ptr %11, align 4
  %34 = load i32, ptr %7, align 4
  %35 = icmp slt i32 %33, %34
  br i1 %35, label %37, label %36

36:                                               ; preds = %32
  store i32 2, ptr %9, align 4
  call void @llvm.lifetime.end.p0(i64 4, ptr %11) #13
  br label %51

37:                                               ; preds = %32
  %38 = load ptr, ptr %5, align 8
  %39 = load i32, ptr %6, align 4
  %40 = load i32, ptr %11, align 4
  %41 = add nsw i32 %39, %40
  %42 = sext i32 %41 to i64
  %43 = getelementptr inbounds i8, ptr %38, i64 %42
  %44 = load i8, ptr %43, align 1
  %45 = load i32, ptr %11, align 4
  %46 = sext i32 %45 to i64
  %47 = getelementptr inbounds [1024 x i8], ptr @TextSubtext.buffer, i64 0, i64 %46
  store i8 %44, ptr %47, align 1
  br label %48

48:                                               ; preds = %37
  %49 = load i32, ptr %11, align 4
  %50 = add nsw i32 %49, 1
  store i32 %50, ptr %11, align 4
  br label %32

51:                                               ; preds = %36
  %52 = load i32, ptr %7, align 4
  %53 = sext i32 %52 to i64
  %54 = getelementptr inbounds [1024 x i8], ptr @TextSubtext.buffer, i64 0, i64 %53
  store i8 0, ptr %54, align 1
  store ptr @TextSubtext.buffer, ptr %4, align 8
  store i32 1, ptr %9, align 4
  call void @llvm.lifetime.end.p0(i64 4, ptr %10) #13
  br label %55

55:                                               ; preds = %51, %17
  call void @llvm.lifetime.end.p0(i64 4, ptr %8) #13
  %56 = load ptr, ptr %4, align 8
  ret ptr %56
}