; Function Attrs: nofree norecurse nosync nounwind memory(write, argmem: read, inaccessiblemem: none) uwtable
define noundef nonnull ptr @TextSubtext(ptr noundef readonly captures(address_is_null) %0, i32 noundef %1, i32 noundef %2) local_unnamed_addr #16 {
  tail call void @llvm.memset.p0.i64(ptr noundef nonnull align 16 dereferenceable(1024) @TextSubtext.buffer, i8 0, i64 1024, i1 false)
  %.not.i = icmp eq ptr %0, null
  br i1 %.not.i, label %TextLength.exit, label %.preheader.i

.preheader.i:                                     ; preds = %3
  %4 = load i8, ptr %0, align 1
  %.not56.i = icmp eq i8 %4, 0
  br i1 %.not56.i, label %TextLength.exit, label %.lr.ph.i

.lr.ph.i:                                         ; preds = %.preheader.i, %.lr.ph.i
  %.18.i = phi i32 [ %6, %.lr.ph.i ], [ 0, %.preheader.i ]
  %.037.i = phi ptr [ %5, %.lr.ph.i ], [ %0, %.preheader.i ]
  %5 = getelementptr inbounds nuw i8, ptr %.037.i, i64 1
  %6 = add i32 %.18.i, 1
  %7 = load i8, ptr %5, align 1
  %.not5.i = icmp eq i8 %7, 0
  br i1 %.not5.i, label %TextLength.exit, label %.lr.ph.i

TextLength.exit:                                  ; preds = %.lr.ph.i, %3, %.preheader.i
  %.0.i = phi i32 [ 0, %3 ], [ 0, %.preheader.i ], [ %6, %.lr.ph.i ]
  %.not = icmp slt i32 %1, %.0.i
  br i1 %.not, label %8, label %16

8:                                                ; preds = %TextLength.exit
  %9 = sub nsw i32 %.0.i, %1
  %spec.select = tail call i32 @llvm.smin.i32(i32 %2, i32 %9)
  %spec.store.select = tail call i32 @llvm.smin.i32(i32 %spec.select, i32 1023)
  %10 = icmp sgt i32 %spec.select, 0
  br i1 %10, label %.lr.ph.preheader, label %._crit_edge

.lr.ph.preheader:                                 ; preds = %8
  %11 = sext i32 %1 to i64
  %smax = tail call i32 @llvm.smax.i32(i32 %spec.store.select, i32 1)
  %wide.trip.count = zext nneg i32 %smax to i64
  %invariant.gep = getelementptr i8, ptr %0, i64 %11
  br label %.lr.ph

._crit_edge:                                      ; preds = %.lr.ph, %8
  %12 = sext i32 %spec.store.select to i64
  %13 = getelementptr inbounds [1024 x i8], ptr @TextSubtext.buffer, i64 0, i64 %12
  store i8 0, ptr %13, align 1
  br label %16

.lr.ph:                                           ; preds = %.lr.ph.preheader, %.lr.ph
  %indvars.iv = phi i64 [ 0, %.lr.ph.preheader ], [ %indvars.iv.next, %.lr.ph ]
  %gep = getelementptr i8, ptr %invariant.gep, i64 %indvars.iv
  %14 = load i8, ptr %gep, align 1
  %15 = getelementptr inbounds nuw [1024 x i8], ptr @TextSubtext.buffer, i64 0, i64 %indvars.iv
  store i8 %14, ptr %15, align 1
  %indvars.iv.next = add nuw nsw i64 %indvars.iv, 1
  %exitcond.not = icmp eq i64 %indvars.iv.next, %wide.trip.count
  br i1 %exitcond.not, label %._crit_edge, label %.lr.ph

16:                                               ; preds = %TextLength.exit, %._crit_edge
  ret ptr @TextSubtext.buffer
}